target datalayout = "e-m:e-p270:32:32-p271:32:32-p272:64:64-i64:64-i128:128-f80:128-n8:16:32:64-S128"
target triple = "x86_64-pc-linux-gnu"

%"class.net::QuicFlowController" = type { ptr, i32, i32, i64, i64, i64, i64, i64, i64, i64, i8, i64, %"class.net::QuicTime" }
%"class.net::QuicTime" = type { i64 }

; Function Attrs: mustprogress nounwind uwtable
define noundef zeroext i1 @_ZN3net18QuicFlowController27UpdateHighestReceivedOffsetEm(ptr noundef nonnull align 8 dereferenceable(96) %0, i64 noundef %1) #2 align 2 {
  %3 = alloca i1, align 1
  %4 = alloca ptr, align 8
  %5 = alloca i64, align 8
  store ptr %0, ptr %4, align 8, !tbaa !3
  store i64 %1, ptr %5, align 8, !tbaa !14
  %6 = load ptr, ptr %4, align 8
  %7 = load i64, ptr %5, align 8, !tbaa !14
  %8 = getelementptr inbounds nuw %"class.net::QuicFlowController", ptr %6, i32 0, i32 6
  %9 = load i64, ptr %8, align 8, !tbaa !26
  %10 = icmp ule i64 %7, %9
  br i1 %10, label %11, label %12

11:                                               ; preds = %2
  store i1 false, ptr %3, align 1
  br label %15

12:                                               ; preds = %2
  %13 = load i64, ptr %5, align 8, !tbaa !14
  %14 = getelementptr inbounds nuw %"class.net::QuicFlowController", ptr %6, i32 0, i32 6
  store i64 %13, ptr %14, align 8, !tbaa !26
  store i1 true, ptr %3, align 1
  br label %15

15:                                               ; preds = %12, %11
  %16 = load i1, ptr %3, align 1
  ret i1 %16
}