; Function Attrs: mustprogress nofree norecurse nosync nounwind willreturn memory(argmem: readwrite) uwtable
define noundef zeroext i1 @_ZN3net18QuicFlowController27UpdateHighestReceivedOffsetEm(ptr noundef nonnull align 8 captures(none) dereferenceable(96) %0, i64 noundef %1) local_unnamed_addr #2 align 2 {
  %3 = getelementptr inbounds nuw i8, ptr %0, i64 40
  %4 = load i64, ptr %3, align 8, !tbaa !180
  %.not = icmp ugt i64 %1, %4
  br i1 %.not, label %5, label %6

5:                                                ; preds = %2
  store i64 %1, ptr %3, align 8, !tbaa !180
  br label %6

6:                                                ; preds = %2, %5
  ret i1 %.not
}